target datalayout = "e-m:e-p270:32:32-p271:32:32-p272:64:64-i64:64-i128:128-f80:128-n8:16:32:64-S128"
target triple = "x86_64-pc-linux-gnu"

%"struct.arrow::ArraySpan" = type { ptr, i64, i64, i64, [3 x %"struct.arrow::BufferSpan"], %"class.std::vector" }
%"struct.arrow::BufferSpan" = type { ptr, i64, ptr }
%"class.std::vector" = type { %"struct.std::_Vector_base" }
%"struct.std::_Vector_base" = type { %"struct.std::_Vector_base<arrow::ArraySpan, std::allocator<arrow::ArraySpan>>::_Vector_impl" }
%"struct.std::_Vector_base<arrow::ArraySpan, std::allocator<arrow::ArraySpan>>::_Vector_impl" = type { %"struct.std::_Vector_base<arrow::ArraySpan, std::allocator<arrow::ArraySpan>>::_Vector_impl_data" }
%"struct.std::_Vector_base<arrow::ArraySpan, std::allocator<arrow::ArraySpan>>::_Vector_impl_data" = type { ptr, ptr, ptr }
%"class.arrow::UnionType" = type { %"class.arrow::NestedType", %"class.std::vector.5", %"class.std::vector.10" }
%"class.arrow::NestedType" = type { %"class.arrow::DataType" }
%"class.arrow::DataType" = type { %"class.arrow::detail::Fingerprintable", %"class.std::enable_shared_from_this", i32, %"class.std::vector.0" }
%"class.arrow::detail::Fingerprintable" = type { ptr, %"struct.std::atomic", %"struct.std::atomic" }
%"struct.std::atomic" = type { %"struct.std::__atomic_base" }
%"struct.std::__atomic_base" = type { ptr }
%"class.std::enable_shared_from_this" = type { %"class.std::weak_ptr" }
%"class.std::weak_ptr" = type { %"class.std::__weak_ptr" }
%"class.std::__weak_ptr" = type { ptr, %"class.std::__weak_count" }
%"class.std::__weak_count" = type { ptr }
%"class.std::vector.0" = type { %"struct.std::_Vector_base.1" }
%"struct.std::_Vector_base.1" = type { %"struct.std::_Vector_base<std::shared_ptr<arrow::Field>, std::allocator<std::shared_ptr<arrow::Field>>>::_Vector_impl" }
%"struct.std::_Vector_base<std::shared_ptr<arrow::Field>, std::allocator<std::shared_ptr<arrow::Field>>>::_Vector_impl" = type { %"struct.std::_Vector_base<std::shared_ptr<arrow::Field>, std::allocator<std::shared_ptr<arrow::Field>>>::_Vector_impl_data" }
%"struct.std::_Vector_base<std::shared_ptr<arrow::Field>, std::allocator<std::shared_ptr<arrow::Field>>>::_Vector_impl_data" = type { ptr, ptr, ptr }
%"class.std::vector.5" = type { %"struct.std::_Vector_base.6" }
%"struct.std::_Vector_base.6" = type { %"struct.std::_Vector_base<signed char, std::allocator<signed char>>::_Vector_impl" }
%"struct.std::_Vector_base<signed char, std::allocator<signed char>>::_Vector_impl" = type { %"struct.std::_Vector_base<signed char, std::allocator<signed char>>::_Vector_impl_data" }
%"struct.std::_Vector_base<signed char, std::allocator<signed char>>::_Vector_impl_data" = type { ptr, ptr, ptr }
%"class.std::vector.10" = type { %"struct.std::_Vector_base.11" }
%"struct.std::_Vector_base.11" = type { %"struct.std::_Vector_base<int, std::allocator<int>>::_Vector_impl" }
%"struct.std::_Vector_base<int, std::allocator<int>>::_Vector_impl" = type { %"struct.std::_Vector_base<int, std::allocator<int>>::_Vector_impl_data" }
%"struct.std::_Vector_base<int, std::allocator<int>>::_Vector_impl_data" = type { ptr, ptr, ptr }

; Function Attrs: mustprogress nounwind uwtable
define linkonce_odr noundef i32 @_ZNK5arrow8DataType2idEv(ptr noundef nonnull align 8 dereferenceable(72) %0) #3 comdat align 2 {
  %2 = alloca ptr, align 8
  store ptr %0, ptr %2, align 8, !tbaa !32
  %3 = load ptr, ptr %2, align 8
  %4 = getelementptr inbounds nuw %"class.arrow::DataType", ptr %3, i32 0, i32 2
  %5 = load i32, ptr %4, align 8, !tbaa !58
  ret i32 %5
}

; Function Attrs: mustprogress nounwind uwtable
define internal noundef zeroext i1 @_ZN5arrow8bit_utilL6GetBitEPKhm(ptr noundef %0, i64 noundef %1) #3 {
  %3 = alloca ptr, align 8
  %4 = alloca i64, align 8
  store ptr %0, ptr %3, align 8, !tbaa !14
  store i64 %1, ptr %4, align 8, !tbaa !16
  %5 = load ptr, ptr %3, align 8, !tbaa !14
  %6 = load i64, ptr %4, align 8, !tbaa !16
  %7 = lshr i64 %6, 3
  %8 = getelementptr inbounds nuw i8, ptr %5, i64 %7
  %9 = load i8, ptr %8, align 1, !tbaa !26
  %10 = zext i8 %9 to i32
  %11 = load i64, ptr %4, align 8, !tbaa !16
  %12 = and i64 %11, 7
  %13 = trunc i64 %12 to i32
  %14 = ashr i32 %10, %13
  %15 = and i32 %14, 1
  %16 = icmp ne i32 %15, 0
  ret i1 %16
}

; Function Attrs: inlinehint mustprogress uwtable
define linkonce_odr noundef zeroext i1 @_ZNK5arrow9ArraySpan7IsValidEl(ptr noundef nonnull align 8 dereferenceable(128) %0, i64 noundef %1) #4 comdat align 2 {
  %3 = alloca i1, align 1
  %4 = alloca ptr, align 8
  %5 = alloca i64, align 8
  %6 = alloca i32, align 4
  %7 = alloca i32, align 4
  store ptr %0, ptr %4, align 8, !tbaa !3
  store i64 %1, ptr %5, align 8, !tbaa !16
  %8 = load ptr, ptr %4, align 8
  %9 = getelementptr inbounds nuw %"struct.arrow::ArraySpan", ptr %8, i32 0, i32 4
  %10 = getelementptr inbounds [3 x %"struct.arrow::BufferSpan"], ptr %9, i64 0, i64 0
  %11 = getelementptr inbounds nuw %"struct.arrow::BufferSpan", ptr %10, i32 0, i32 0
  %12 = load ptr, ptr %11, align 8, !tbaa !51
  %13 = icmp ne ptr %12, null
  br i1 %13, label %14, label %24

14:                                               ; preds = %2
  %15 = getelementptr inbounds nuw %"struct.arrow::ArraySpan", ptr %8, i32 0, i32 4
  %16 = getelementptr inbounds [3 x %"struct.arrow::BufferSpan"], ptr %15, i64 0, i64 0
  %17 = getelementptr inbounds nuw %"struct.arrow::BufferSpan", ptr %16, i32 0, i32 0
  %18 = load ptr, ptr %17, align 8, !tbaa !51
  %19 = load i64, ptr %5, align 8, !tbaa !16
  %20 = getelementptr inbounds nuw %"struct.arrow::ArraySpan", ptr %8, i32 0, i32 3
  %21 = load i64, ptr %20, align 8, !tbaa !25
  %22 = add nsw i64 %19, %21
  %23 = call noundef zeroext i1 @_ZN5arrow8bit_utilL6GetBitEPKhm(ptr noundef %18, i64 noundef %22)
  store i1 %23, ptr %3, align 1
  br label %55

24:                                               ; preds = %2
  call void @llvm.lifetime.start.p0(i64 4, ptr %6) #6
  %25 = getelementptr inbounds nuw %"struct.arrow::ArraySpan", ptr %8, i32 0, i32 0
  %26 = load ptr, ptr %25, align 8, !tbaa !54
  %27 = call noundef i32 @_ZNK5arrow8DataType2idEv(ptr noundef nonnull align 8 dereferenceable(72) %26)
  store i32 %27, ptr %6, align 4, !tbaa !55
  %28 = load i32, ptr %6, align 4, !tbaa !55
  %29 = icmp eq i32 %28, 27
  br i1 %29, label %30, label %34

30:                                               ; preds = %24
  %31 = load i64, ptr %5, align 8, !tbaa !16
  %32 = call noundef zeroext i1 @_ZNK5arrow9ArraySpan17IsNullSparseUnionEl(ptr noundef nonnull align 8 dereferenceable(128) %8, i64 noundef %31)
  %33 = xor i1 %32, true
  store i1 %33, ptr %3, align 1
  store i32 1, ptr %7, align 4
  br label %54

34:                                               ; preds = %24
  %35 = load i32, ptr %6, align 4, !tbaa !55
  %36 = icmp eq i32 %35, 28
  br i1 %36, label %37, label %41

37:                                               ; preds = %34
  %38 = load i64, ptr %5, align 8, !tbaa !16
  %39 = call noundef zeroext i1 @_ZNK5arrow9ArraySpan16IsNullDenseUnionEl(ptr noundef nonnull align 8 dereferenceable(128) %8, i64 noundef %38)
  %40 = xor i1 %39, true
  store i1 %40, ptr %3, align 1
  store i32 1, ptr %7, align 4
  br label %54

41:                                               ; preds = %34
  %42 = load i32, ptr %6, align 4, !tbaa !55
  %43 = icmp eq i32 %42, 38
  br i1 %43, label %44, label %48

44:                                               ; preds = %41
  %45 = load i64, ptr %5, align 8, !tbaa !16
  %46 = call noundef zeroext i1 @_ZNK5arrow9ArraySpan19IsNullRunEndEncodedEl(ptr noundef nonnull align 8 dereferenceable(128) %8, i64 noundef %45)
  %47 = xor i1 %46, true
  store i1 %47, ptr %3, align 1
  store i32 1, ptr %7, align 4
  br label %54

48:                                               ; preds = %41
  %49 = getelementptr inbounds nuw %"struct.arrow::ArraySpan", ptr %8, i32 0, i32 2
  %50 = load i64, ptr %49, align 8, !tbaa !57
  %51 = getelementptr inbounds nuw %"struct.arrow::ArraySpan", ptr %8, i32 0, i32 1
  %52 = load i64, ptr %51, align 8, !tbaa !18
  %53 = icmp ne i64 %50, %52
  store i1 %53, ptr %3, align 1
  store i32 1, ptr %7, align 4
  br label %54

54:                                               ; preds = %48, %44, %37, %30
  call void @llvm.lifetime.end.p0(i64 4, ptr %6) #6
  br label %55

55:                                               ; preds = %54, %14
  %56 = load i1, ptr %3, align 1
  ret i1 %56
}

; Function Attrs: inlinehint mustprogress nounwind uwtable
define linkonce_odr noundef ptr @_ZNK5arrow9ArraySpan9GetValuesIaEEPKT_il(ptr noundef nonnull align 8 dereferenceable(128) %0, i32 noundef %1, i64 noundef %2) #2 comdat align 2 {
  %4 = alloca ptr, align 8
  %5 = alloca i32, align 4
  %6 = alloca i64, align 8
  store ptr %0, ptr %4, align 8, !tbaa !3
  store i32 %1, ptr %5, align 4, !tbaa !27
  store i64 %2, ptr %6, align 8, !tbaa !16
  %7 = load ptr, ptr %4, align 8
  %8 = getelementptr inbounds nuw %"struct.arrow::ArraySpan", ptr %7, i32 0, i32 4
  %9 = load i32, ptr %5, align 4, !tbaa !27
  %10 = sext i32 %9 to i64
  %11 = getelementptr inbounds [3 x %"struct.arrow::BufferSpan"], ptr %8, i64 0, i64 %10
  %12 = getelementptr inbounds nuw %"struct.arrow::BufferSpan", ptr %11, i32 0, i32 0
  %13 = load ptr, ptr %12, align 8, !tbaa !51
  %14 = load i64, ptr %6, align 8, !tbaa !16
  %15 = getelementptr inbounds i8, ptr %13, i64 %14
  ret ptr %15
}

; Function Attrs: inlinehint mustprogress uwtable
define linkonce_odr noundef zeroext i1 @_ZNK5arrow9ArraySpan6IsNullEl(ptr noundef nonnull align 8 dereferenceable(128) %0, i64 noundef %1) #4 comdat align 2 {
  %3 = alloca ptr, align 8
  %4 = alloca i64, align 8
  store ptr %0, ptr %3, align 8, !tbaa !3
  store i64 %1, ptr %4, align 8, !tbaa !16
  %5 = load ptr, ptr %3, align 8
  %6 = load i64, ptr %4, align 8, !tbaa !16
  %7 = call noundef zeroext i1 @_ZNK5arrow9ArraySpan7IsValidEl(ptr noundef nonnull align 8 dereferenceable(128) %5, i64 noundef %6)
  %8 = xor i1 %7, true
  ret i1 %8
}

; Function Attrs: mustprogress nounwind uwtable
define linkonce_odr noundef nonnull align 8 dereferenceable(128) ptr @_ZNKSt6vectorIN5arrow9ArraySpanESaIS1_EEixEm(ptr noundef nonnull align 8 dereferenceable(24) %0, i64 noundef %1) #3 comdat align 2 {
  %3 = alloca ptr, align 8
  %4 = alloca i64, align 8
  store ptr %0, ptr %3, align 8, !tbaa !33
  store i64 %1, ptr %4, align 8, !tbaa !16
  %5 = load ptr, ptr %3, align 8
  %6 = getelementptr inbounds nuw %"struct.std::_Vector_base", ptr %5, i32 0, i32 0
  %7 = getelementptr inbounds nuw %"struct.std::_Vector_base<arrow::ArraySpan, std::allocator<arrow::ArraySpan>>::_Vector_impl_data", ptr %6, i32 0, i32 0
  %8 = load ptr, ptr %7, align 8, !tbaa !36
  %9 = load i64, ptr %4, align 8, !tbaa !16
  %10 = getelementptr inbounds nuw %"struct.arrow::ArraySpan", ptr %8, i64 %9
  ret ptr %10
}

; Function Attrs: mustprogress nounwind uwtable
define linkonce_odr noundef nonnull align 4 dereferenceable(4) ptr @_ZNKSt6vectorIiSaIiEEixEm(ptr noundef nonnull align 8 dereferenceable(24) %0, i64 noundef %1) #3 comdat align 2 {
  %3 = alloca ptr, align 8
  %4 = alloca i64, align 8
  store ptr %0, ptr %3, align 8, !tbaa !39
  store i64 %1, ptr %4, align 8, !tbaa !16
  %5 = load ptr, ptr %3, align 8
  %6 = getelementptr inbounds nuw %"struct.std::_Vector_base.11", ptr %5, i32 0, i32 0
  %7 = getelementptr inbounds nuw %"struct.std::_Vector_base<int, std::allocator<int>>::_Vector_impl_data", ptr %6, i32 0, i32 0
  %8 = load ptr, ptr %7, align 8, !tbaa !41
  %9 = load i64, ptr %4, align 8, !tbaa !16
  %10 = getelementptr inbounds nuw i32, ptr %8, i64 %9
  ret ptr %10
}

; Function Attrs: mustprogress nounwind uwtable
define linkonce_odr noundef nonnull align 8 dereferenceable(24) ptr @_ZNK5arrow9UnionType9child_idsEv(ptr noundef nonnull align 8 dereferenceable(120) %0) #3 comdat align 2 {
  %2 = alloca ptr, align 8
  store ptr %0, ptr %2, align 8, !tbaa !37
  %3 = load ptr, ptr %2, align 8
  %4 = getelementptr inbounds nuw %"class.arrow::UnionType", ptr %3, i32 0, i32 2
  ret ptr %4
}

; Function Attrs: inlinehint mustprogress uwtable
define linkonce_odr noundef ptr @_ZNK5arrow9ArraySpan9GetValuesIaEEPKT_i(ptr noundef nonnull align 8 dereferenceable(128) %0, i32 noundef %1) #4 comdat align 2 {
  %3 = alloca ptr, align 8
  %4 = alloca i32, align 4
  store ptr %0, ptr %3, align 8, !tbaa !3
  store i32 %1, ptr %4, align 4, !tbaa !27
  %5 = load ptr, ptr %3, align 8
  %6 = load i32, ptr %4, align 4, !tbaa !27
  %7 = getelementptr inbounds nuw %"struct.arrow::ArraySpan", ptr %5, i32 0, i32 3
  %8 = load i64, ptr %7, align 8, !tbaa !25
  %9 = call noundef ptr @_ZNK5arrow9ArraySpan9GetValuesIaEEPKT_il(ptr noundef nonnull align 8 dereferenceable(128) %5, i32 noundef %6, i64 noundef %8)
  ret ptr %9
}

; Function Attrs: mustprogress nounwind uwtable
define linkonce_odr noundef i64 @_ZNKSt6vectorIN5arrow9ArraySpanESaIS1_EE4sizeEv(ptr noundef nonnull align 8 dereferenceable(24) %0) #3 comdat align 2 {
  %2 = alloca ptr, align 8
  store ptr %0, ptr %2, align 8, !tbaa !33
  %3 = load ptr, ptr %2, align 8
  %4 = getelementptr inbounds nuw %"struct.std::_Vector_base", ptr %3, i32 0, i32 0
  %5 = getelementptr inbounds nuw %"struct.std::_Vector_base<arrow::ArraySpan, std::allocator<arrow::ArraySpan>>::_Vector_impl_data", ptr %4, i32 0, i32 1
  %6 = load ptr, ptr %5, align 8, !tbaa !35
  %7 = getelementptr inbounds nuw %"struct.std::_Vector_base", ptr %3, i32 0, i32 0
  %8 = getelementptr inbounds nuw %"struct.std::_Vector_base<arrow::ArraySpan, std::allocator<arrow::ArraySpan>>::_Vector_impl_data", ptr %7, i32 0, i32 0
  %9 = load ptr, ptr %8, align 8, !tbaa !36
  %10 = ptrtoint ptr %6 to i64
  %11 = ptrtoint ptr %9 to i64
  %12 = sub i64 %10, %11
  %13 = sdiv exact i64 %12, 128
  ret i64 %13
}

; Function Attrs: inlinehint mustprogress nounwind uwtable
define linkonce_odr noundef ptr @_ZN5arrow8internal12checked_castIPKNS_15SparseUnionTypeERKPKNS_8DataTypeEEET_OT0_(ptr noundef nonnull align 8 dereferenceable(8) %0) #2 comdat {
  %2 = alloca ptr, align 8
  store ptr %0, ptr %2, align 8, !tbaa !30
  %3 = load ptr, ptr %2, align 8, !tbaa !30
  %4 = load ptr, ptr %3, align 8, !tbaa !32
  ret ptr %4
}

; Function Attrs: mustprogress uwtable
define noundef i64 @_ZN5arrow10union_util27LogicalSparseUnionNullCountERKNS_9ArraySpanE(ptr noundef nonnull align 8 dereferenceable(128) %0) #0 {
  %2 = alloca ptr, align 8
  %3 = alloca ptr, align 8
  %4 = alloca ptr, align 8
  %5 = alloca i64, align 8
  %6 = alloca i64, align 8
  %7 = alloca i8, align 1
  store ptr %0, ptr %2, align 8, !tbaa !3
  call void @llvm.lifetime.start.p0(i64 8, ptr %3) #6
  %8 = load ptr, ptr %2, align 8, !tbaa !3
  %9 = getelementptr inbounds nuw %"struct.arrow::ArraySpan", ptr %8, i32 0, i32 0
  %10 = call noundef ptr @_ZN5arrow8internal12checked_castIPKNS_15SparseUnionTypeERKPKNS_8DataTypeEEET_OT0_(ptr noundef nonnull align 8 dereferenceable(8) %9)
  store ptr %10, ptr %3, align 8, !tbaa !8
  br label %11

11:                                               ; preds = %12, %1
  br i1 false, label %12, label %16

12:                                               ; preds = %11
  %13 = load ptr, ptr %2, align 8, !tbaa !3
  %14 = getelementptr inbounds nuw %"struct.arrow::ArraySpan", ptr %13, i32 0, i32 5
  %15 = call noundef i64 @_ZNKSt6vectorIN5arrow9ArraySpanESaIS1_EE4sizeEv(ptr noundef nonnull align 8 dereferenceable(24) %14) #6
  br label %11, !llvm.loop !10

16:                                               ; preds = %11
  br label %17

17:                                               ; preds = %18, %16
  br i1 false, label %18, label %19

18:                                               ; preds = %17
  br label %17, !llvm.loop !12

19:                                               ; preds = %17
  br label %20

20:                                               ; preds = %21, %19
  br i1 false, label %21, label %22

21:                                               ; preds = %20
  br label %20, !llvm.loop !13

22:                                               ; preds = %20
  call void @llvm.lifetime.start.p0(i64 8, ptr %4) #6
  %23 = load ptr, ptr %2, align 8, !tbaa !3
  %24 = call noundef ptr @_ZNK5arrow9ArraySpan9GetValuesIaEEPKT_i(ptr noundef nonnull align 8 dereferenceable(128) %23, i32 noundef 1)
  store ptr %24, ptr %4, align 8, !tbaa !14
  call void @llvm.lifetime.start.p0(i64 8, ptr %5) #6
  store i64 0, ptr %5, align 8, !tbaa !16
  call void @llvm.lifetime.start.p0(i64 8, ptr %6) #6
  store i64 0, ptr %6, align 8, !tbaa !16
  br label %25

25:                                               ; preds = %57, %22
  %26 = load i64, ptr %6, align 8, !tbaa !16
  %27 = load ptr, ptr %2, align 8, !tbaa !3
  %28 = getelementptr inbounds nuw %"struct.arrow::ArraySpan", ptr %27, i32 0, i32 1
  %29 = load i64, ptr %28, align 8, !tbaa !18
  %30 = icmp slt i64 %26, %29
  br i1 %30, label %32, label %31

31:                                               ; preds = %25
  call void @llvm.lifetime.end.p0(i64 8, ptr %6) #6
  br label %60

32:                                               ; preds = %25
  call void @llvm.lifetime.start.p0(i64 1, ptr %7) #6
  %33 = load ptr, ptr %3, align 8, !tbaa !8
  %34 = call noundef nonnull align 8 dereferenceable(24) ptr @_ZNK5arrow9UnionType9child_idsEv(ptr noundef nonnull align 8 dereferenceable(120) %33)
  %35 = load ptr, ptr %4, align 8, !tbaa !14
  %36 = load ptr, ptr %2, align 8, !tbaa !3
  %37 = getelementptr inbounds nuw %"struct.arrow::ArraySpan", ptr %36, i32 0, i32 3
  %38 = load i64, ptr %37, align 8, !tbaa !25
  %39 = load i64, ptr %6, align 8, !tbaa !16
  %40 = add nsw i64 %38, %39
  %41 = getelementptr inbounds i8, ptr %35, i64 %40
  %42 = load i8, ptr %41, align 1, !tbaa !26
  %43 = sext i8 %42 to i64
  %44 = call noundef nonnull align 4 dereferenceable(4) ptr @_ZNKSt6vectorIiSaIiEEixEm(ptr noundef nonnull align 8 dereferenceable(24) %34, i64 noundef %43) #6
  %45 = load i32, ptr %44, align 4, !tbaa !27
  %46 = trunc i32 %45 to i8
  store i8 %46, ptr %7, align 1, !tbaa !26
  %47 = load ptr, ptr %2, align 8, !tbaa !3
  %48 = getelementptr inbounds nuw %"struct.arrow::ArraySpan", ptr %47, i32 0, i32 5
  %49 = load i8, ptr %7, align 1, !tbaa !26
  %50 = sext i8 %49 to i64
  %51 = call noundef nonnull align 8 dereferenceable(128) ptr @_ZNKSt6vectorIN5arrow9ArraySpanESaIS1_EEixEm(ptr noundef nonnull align 8 dereferenceable(24) %48, i64 noundef %50) #6
  %52 = load i64, ptr %6, align 8, !tbaa !16
  %53 = call noundef zeroext i1 @_ZNK5arrow9ArraySpan6IsNullEl(ptr noundef nonnull align 8 dereferenceable(128) %51, i64 noundef %52)
  %54 = zext i1 %53 to i64
  %55 = load i64, ptr %5, align 8, !tbaa !16
  %56 = add nsw i64 %55, %54
  store i64 %56, ptr %5, align 8, !tbaa !16
  call void @llvm.lifetime.end.p0(i64 1, ptr %7) #6
  br label %57

57:                                               ; preds = %32
  %58 = load i64, ptr %6, align 8, !tbaa !16
  %59 = add nsw i64 %58, 1
  store i64 %59, ptr %6, align 8, !tbaa !16
  br label %25, !llvm.loop !29

60:                                               ; preds = %31
  %61 = load i64, ptr %5, align 8, !tbaa !16
  call void @llvm.lifetime.end.p0(i64 8, ptr %5) #6
  call void @llvm.lifetime.end.p0(i64 8, ptr %4) #6
  call void @llvm.lifetime.end.p0(i64 8, ptr %3) #6
  ret i64 %61
}