; Function Attrs: mustprogress uwtable
define noundef i64 @_ZN5arrow10union_util27LogicalSparseUnionNullCountERKNS_9ArraySpanE(ptr noundef nonnull readonly align 8 captures(none) dereferenceable(128) %0) local_unnamed_addr #0 {
  %2 = getelementptr inbounds nuw i8, ptr %0, i64 24
  %3 = load i64, ptr %2, align 8, !tbaa !3
  %4 = getelementptr inbounds nuw i8, ptr %0, i64 56
  %5 = load ptr, ptr %4, align 8, !tbaa !15
  %6 = getelementptr inbounds i8, ptr %5, i64 %3
  %7 = getelementptr inbounds nuw i8, ptr %0, i64 8
  %8 = load i64, ptr %7, align 8, !tbaa !19
  %9 = icmp sgt i64 %8, 0
  br i1 %9, label %.lr.ph, label %._crit_edge

.lr.ph:                                           ; preds = %1
  %10 = load ptr, ptr %0, align 8, !tbaa !20
  %11 = getelementptr inbounds nuw i8, ptr %10, i64 96
  %12 = getelementptr inbounds nuw i8, ptr %0, i64 104
  br label %13

._crit_edge:                                      ; preds = %_ZNK5arrow9ArraySpan6IsNullEl.exit, %1
  %.0.lcssa = phi i64 [ 0, %1 ], [ %62, %_ZNK5arrow9ArraySpan6IsNullEl.exit ]
  ret i64 %.0.lcssa

13:                                               ; preds = %.lr.ph, %_ZNK5arrow9ArraySpan6IsNullEl.exit
  %.015 = phi i64 [ 0, %.lr.ph ], [ %62, %_ZNK5arrow9ArraySpan6IsNullEl.exit ]
  %.01314 = phi i64 [ 0, %.lr.ph ], [ %63, %_ZNK5arrow9ArraySpan6IsNullEl.exit ]
  %14 = load i64, ptr %2, align 8, !tbaa !3
  %15 = getelementptr i8, ptr %6, i64 %14
  %16 = getelementptr i8, ptr %15, i64 %.01314
  %17 = load i8, ptr %16, align 1, !tbaa !21
  %18 = sext i8 %17 to i64
  %19 = load ptr, ptr %11, align 8, !tbaa !22
  %20 = getelementptr inbounds nuw i32, ptr %19, i64 %18
  %21 = load i32, ptr %20, align 4, !tbaa !25
  %22 = zext i32 %21 to i64
  %sext = shl i64 %22, 56
  %23 = load ptr, ptr %12, align 8, !tbaa !27
  %24 = ashr exact i64 %sext, 49
  %25 = getelementptr inbounds nuw i8, ptr %23, i64 %24
  %26 = getelementptr inbounds nuw i8, ptr %25, i64 32
  %27 = load ptr, ptr %26, align 8, !tbaa !15
  %.not.i.i = icmp eq ptr %27, null
  br i1 %.not.i.i, label %41, label %28

28:                                               ; preds = %13
  %29 = getelementptr inbounds nuw i8, ptr %25, i64 24
  %30 = load i64, ptr %29, align 8, !tbaa !3
  %31 = add nsw i64 %30, %.01314
  %32 = lshr i64 %31, 3
  %33 = getelementptr inbounds nuw i8, ptr %27, i64 %32
  %34 = load i8, ptr %33, align 1, !tbaa !21
  %35 = zext i8 %34 to i32
  %36 = trunc i64 %31 to i32
  %37 = and i32 %36, 7
  %38 = shl nuw nsw i32 1, %37
  %39 = and i32 %38, %35
  %40 = icmp ne i32 %39, 0
  br label %_ZNK5arrow9ArraySpan6IsNullEl.exit

41:                                               ; preds = %13
  %42 = load ptr, ptr %25, align 8, !tbaa !28
  %43 = getelementptr inbounds nuw i8, ptr %42, i64 40
  %44 = load i32, ptr %43, align 8, !tbaa !29
  switch i32 %44, label %54 [
    i32 27, label %45
    i32 28, label %48
    i32 38, label %51
  ]

45:                                               ; preds = %41
  %46 = tail call noundef zeroext i1 @_ZNK5arrow9ArraySpan17IsNullSparseUnionEl(ptr noundef nonnull align 8 dereferenceable(128) %25, i64 noundef %.01314)
  %47 = xor i1 %46, true
  br label %_ZNK5arrow9ArraySpan6IsNullEl.exit

48:                                               ; preds = %41
  %49 = tail call noundef zeroext i1 @_ZNK5arrow9ArraySpan16IsNullDenseUnionEl(ptr noundef nonnull align 8 dereferenceable(128) %25, i64 noundef %.01314)
  %50 = xor i1 %49, true
  br label %_ZNK5arrow9ArraySpan6IsNullEl.exit

51:                                               ; preds = %41
  %52 = tail call noundef zeroext i1 @_ZNK5arrow9ArraySpan19IsNullRunEndEncodedEl(ptr noundef nonnull align 8 dereferenceable(128) %25, i64 noundef %.01314)
  %53 = xor i1 %52, true
  br label %_ZNK5arrow9ArraySpan6IsNullEl.exit

54:                                               ; preds = %41
  %55 = getelementptr inbounds nuw i8, ptr %25, i64 16
  %56 = load i64, ptr %55, align 8, !tbaa !46
  %57 = getelementptr inbounds nuw i8, ptr %25, i64 8
  %58 = load i64, ptr %57, align 8, !tbaa !19
  %59 = icmp ne i64 %56, %58
  br label %_ZNK5arrow9ArraySpan6IsNullEl.exit

_ZNK5arrow9ArraySpan6IsNullEl.exit:               ; preds = %28, %45, %48, %51, %54
  %.0.i.i = phi i1 [ %40, %28 ], [ %47, %45 ], [ %50, %48 ], [ %53, %51 ], [ %59, %54 ]
  %60 = xor i1 %.0.i.i, true
  %61 = zext i1 %60 to i64
  %62 = add nuw nsw i64 %.015, %61
  %63 = add nuw nsw i64 %.01314, 1
  %64 = load i64, ptr %7, align 8, !tbaa !19
  %65 = icmp slt i64 %63, %64
  br i1 %65, label %13, label %._crit_edge, !llvm.loop !47
}